; Function Attrs: nounwind uwtable
define hidden void @_glfwGetCursorPosX11(ptr noundef readonly captures(none) %0, ptr noundef writeonly captures(address_is_null) %1, ptr noundef writeonly captures(address_is_null) %2) local_unnamed_addr #0 {
  %4 = alloca i64, align 8
  %5 = alloca i64, align 8
  %6 = alloca i32, align 4
  %7 = alloca i32, align 4
  %8 = alloca i32, align 4
  %9 = alloca i32, align 4
  %10 = alloca i32, align 4
  call void @llvm.lifetime.start.p0(i64 8, ptr nonnull %4) #17
  call void @llvm.lifetime.start.p0(i64 8, ptr nonnull %5) #17
  call void @llvm.lifetime.start.p0(i64 4, ptr nonnull %6) #17
  call void @llvm.lifetime.start.p0(i64 4, ptr nonnull %7) #17
  call void @llvm.lifetime.start.p0(i64 4, ptr nonnull %8) #17
  call void @llvm.lifetime.start.p0(i64 4, ptr nonnull %9) #17
  call void @llvm.lifetime.start.p0(i64 4, ptr nonnull %10) #17
  %11 = load ptr, ptr getelementptr inbounds nuw (i8, ptr @_glfw, i64 141784), align 8, !tbaa !354
  %12 = load ptr, ptr getelementptr inbounds nuw (i8, ptr @_glfw, i64 137840), align 8, !tbaa !93
  %13 = getelementptr inbounds nuw i8, ptr %0, i64 1248
  %14 = load i64, ptr %13, align 8, !tbaa !140
  %15 = call i32 %11(ptr noundef %12, i64 noundef %14, ptr noundef nonnull %4, ptr noundef nonnull %5, ptr noundef nonnull %6, ptr noundef nonnull %7, ptr noundef nonnull %8, ptr noundef nonnull %9, ptr noundef nonnull %10) #17
  %.not = icmp eq ptr %1, null
  br i1 %.not, label %19, label %16

16:                                               ; preds = %3
  %17 = load i32, ptr %8, align 4, !tbaa !183
  %18 = sitofp i32 %17 to double
  store double %18, ptr %1, align 8, !tbaa !265
  br label %19

19:                                               ; preds = %16, %3
  %.not6 = icmp eq ptr %2, null
  br i1 %.not6, label %23, label %20

20:                                               ; preds = %19
  %21 = load i32, ptr %9, align 4, !tbaa !183
  %22 = sitofp i32 %21 to double
  store double %22, ptr %2, align 8, !tbaa !265
  br label %23

23:                                               ; preds = %20, %19
  call void @llvm.lifetime.end.p0(i64 4, ptr nonnull %10) #17
  call void @llvm.lifetime.end.p0(i64 4, ptr nonnull %9) #17
  call void @llvm.lifetime.end.p0(i64 4, ptr nonnull %8) #17
  call void @llvm.lifetime.end.p0(i64 4, ptr nonnull %7) #17
  call void @llvm.lifetime.end.p0(i64 4, ptr nonnull %6) #17
  call void @llvm.lifetime.end.p0(i64 8, ptr nonnull %5) #17
  call void @llvm.lifetime.end.p0(i64 8, ptr nonnull %4) #17
  ret void
}